(lp0
L2376747746L
aL2966900187L
aI216900039
aL3183060823L
aL3264229543L
aL3669620519L
aI1995814915
aI355449544
aI1923899336
aL3371991065L
aI811502575
aI1216440379
aI1831315323
aI819920443
aL2728078701L
aL2796175992L
aL3304943926L
aL2492207180L
aL3391220491L
aI1156465462
aI1784352157
aL2485927168L
aI1763960464
aL2817700632L
aL2934706411L
aL3704939741L
aL2364717523L
aI584819179
aL2678439758L
aL2671034689L
aI667298381
aI1383067516
aI518228348
aI304084533
aI1154739981
aI411427744
aI1910937881
aI660451933
aI1760265147
aI37378045
aL2232053072L
aI1129930533
aI101191157
aI297037417
aL2185267091L
aI2056872450
aL2223657433L
aI2054675367
aI1973757807
aL2451401887L
aI1225569807
aL4253531722L
aL2755598277L
aL3255196873L
aI1241733232
aI953944011
aL3913059068L
aI69840362
aI1016738517
aI1810593150
aL3862890267L
aL2322757830L
aI478367524
aL3914078182L
aI327705359
aL3543270500L
aL3601271897L
aL2880203910L
aL3306869430L
aL3015829170L
aI719876655
aI1252459873
aI169739115
aL2618930214L
aI1836029628
aL3660759639L
aL3826993302L
aI1211777351
aL2888569254L
aI363960469
aL3017988081L
aI244347643
aL3783361075L
aL2514480103L
aL3794540146L
aL4239498739L
aI1229988425
aL3072751416L
aL3124950192L
aL4262689019L
aL2714463151L
aI1141949591
aI626285263
aI1520540625
aI500223164
aL3991549466L
aI1965794798
aL4115828953L
aI313551881
aI465804800
aL3044226023L
aL3575542973L
aL4154064383L
aL2657314751L
aI181010552
aL2902009691L
aI555722837
aI1709330414
aI2134921380
aI1236405318
aL3212900183L
aI1811328272
aI1007513800
aI115039049
aI179298801
aL2754627651L
aL2559606766L
aL2921005269L
aI859954766
aL3920020841L
aL2532199540L
aI1854344747
aL2747205262L
aL2413599649L
aI1591623927
aL3958356646L
aI1510034659
aI1926798904
aI125329518
aL3224957814L
aL2761277528L
aI548934780
aL2299941663L
aI723876967
aI1548869861
aL4248527606L
aI10060445
aI389390559
aL3331261717L
aI235881319
aL2242397772L
aI209416974
aL2831011025L
aI1960087005
aL3048480889L
aI612802093
aL3124995924L
aI2049478611
aL3185248854L
aL2496251322L
aL2379507425L
aI1932523207
aI502648938
aL4011554302L
aI1069147595
aL3110487771L
aL2540011412L
aL3392447875L
aL2998647336L
aI1655956600
aL3128025288L
aI508478637
aL3919117150L
aI1712106527
aI1296762439
aI1145265751
aI390469047
aI1595480931
aI1476388895
aI802113777
aI1415622461
aI833358161
aL4177268629L
aI802907670
aL2223742067L
aI1678175911
aI1172198678
aI971830229
aL3668239534L
aI623820453
aI1689955296
aL2283760805L
aL2533873223L
aL2597539704L
aL3122200320L
aI457832575
aI256715619
aI1082872429
aL2151881952L
aL2234674346L
aL3409657551L
aL3630619915L
aI1555281192
aI955243678
aL2262323075L
aL2870640939L
aL2428003323L
aL2178857609L
aI902878771
aL2621764934L
a.