(lp0
I848875311
aI734562267
aL3097749763L
aL3851505063L
aI1960104625
aL3642824063L
aL3494359170L
aI565691444
aI1632353472
aL4269495341L
aI20442179
aL2929660180L
aL2522782469L
aI2090317365
aL2199946892L
aI1411404735
aL2220856901L
aL3702398486L
aI244726256
aL2335148722L
aI1642094448
aI1154834516
aI1452229897
aL3077217389L
aL2377231328L
aI1420448702
aI1066282774
aI592506864
aI1571144235
aI1016623471
aI1924177109
aL2510656795L
aI1768429109
aL2355496423L
aL3205772448L
aL3837656264L
aI956036637
aI1743122809
aL3628307316L
aI46088806
aL3736356371L
aI183564283
aI1688031309
aL2618032978L
aI1823886846
aL3356009051L
aL4209447465L
aL2271528897L
aI1717146800
aL4148539094L
aL2726212495L
aL4118608804L
aI1173802278
aL2641629358L
aL2782623512L
aL2215016112L
aL4025996071L
aL3984491021L
aI189877291
aI376804514
aI1950005059
aI680239890
aL3561497584L
aL2634014392L
aL3474578282L
aL3413027708L
aI928601226
aL3231138552L
aI1940594624
aI1783474775
aI1711607593
aL3236158910L
aI1225269008
aI362764036
aI317842196
aL2944291214L
aI1823570647
aL2783080853L
aL3655881558L
aL2582425626L
aI2086615112
aL3585127176L
aL3741088336L
aI572781042
aI1641032842
aL2752466494L
aI1989656342
aI2073034777
aL2607446393L
aI320798699
aI1817483555
aL3236187034L
aL3300858238L
aL4186812352L
aL2329830805L
aI490141324
aL2990701840L
aI1198235803
aI1531398904
aI1361611846
aL3419158105L
aL3511038020L
aL2928029189L
aL3004844623L
aI1907340795
aI1856645595
aI1745794759
aL3887396908L
aI545265633
aL4218397675L
aI750085151
aI910315698
aL3083927417L
aL2507240163L
aI223457449
aL2325412252L
aL3230041000L
aI1116874987
aI13649772
aL3970632931L
aL3481676937L
aI87074233
aI94849116
aI1942958332
aI702217985
aI1198405609
aI249470014
aL2190229743L
aL2677971233L
aI1877495151
aI1964923333
aI1701020965
aI725180339
aI1690809282
aL2155166329L
aI1170570351
aI1120647451
aL3158796403L
aL3284737501L
aL3227857789L
aL4057095061L
aI1544878558
aI1864605418
aI1416506847
aL3243747404L
aI1395422954
aI1917630676
aI1331617498
aI759437528
aL3423727925L
aI1164278376
aL3481907561L
aL3852450610L
aI260737893
aI1903479716
aL4118716680L
aI1658240570
aL2989955986L
aI2132296130
aI1658806775
aI1683164761
aI833772160
aL3318416297L
aL3009419774L
aL3372024383L
aI2014618871
aL2993995409L
aL3002509433L
aL3514111679L
aL4143926143L
aL2150804007L
aL2994372453L
aI1142471632
aI1301377878
aI176987670
aL2184645579L
aI455356715
aL3068692278L
aI1418212594
aI1211280873
aI1568895565
aL3507369777L
aL2622226977L
aL2653700567L
aL2200187735L
aL2792753526L
aI1464128928
aI563165200
aI1306193195
aI1181514502
aI1056903409
aL3857595922L
aI1345125003
aL2736369642L
aL2871397038L
aI144471702
aI1938932793
aL3724129270L
aL3512435850L
aL4205658708L
a.